target datalayout = "e-m:e-p270:32:32-p271:32:32-p272:64:64-i64:64-i128:128-f80:128-n8:16:32:64-S128"
target triple = "x86_64-unknown-linux-gnu"

%struct.Node = type { i32, ptr, ptr, ptr, ptr, ptr, ptr, ptr, ptr, ptr, ptr, ptr, ptr, ptr, ptr, ptr, ptr, i8, ptr, ptr, ptr, ptr, ptr, ptr, i64, i64, ptr, ptr, ptr, ptr, ptr, ptr, ptr, i64, x86_fp80 }
%struct.Token = type { i32, ptr, i64, x86_fp80, ptr, i32, ptr, ptr, ptr, ptr, i32, i32, i8, i8, ptr, ptr }
%struct.Type = type { i32, i32, i32, i8, i8, ptr, ptr, ptr, ptr, i32, ptr, ptr, ptr, i8, i8, ptr, ptr, i8, ptr }
%struct.Member = type { ptr, ptr, ptr, ptr, i32, i32, i32, i8, i32, i32 }

@.str.6 = private unnamed_addr constant [3 x i8] c"&&\00", align 1
@.str.9 = private unnamed_addr constant [2 x i8] c"&\00", align 1
@.str.18 = private unnamed_addr constant [2 x i8] c"+\00", align 1
@.str.19 = private unnamed_addr constant [2 x i8] c"-\00", align 1
@.str.20 = private unnamed_addr constant [2 x i8] c"*\00", align 1
@.str.60 = private unnamed_addr constant [32 x i8] c"cannot take address of bitfield\00", align 1
@.str.61 = private unnamed_addr constant [2 x i8] c"!\00", align 1
@.str.62 = private unnamed_addr constant [2 x i8] c"~\00", align 1
@.str.63 = private unnamed_addr constant [3 x i8] c"++\00", align 1
@.str.64 = private unnamed_addr constant [3 x i8] c"--\00", align 1
@gotos = internal global ptr null, align 8

; Function Attrs: nounwind uwtable
define internal ptr @new_node(i32 noundef %kind, ptr noundef %tok) #0 {
entry:
  %kind.addr = alloca i32, align 4
  %tok.addr = alloca ptr, align 8
  %node = alloca ptr, align 8
  store i32 %kind, ptr %kind.addr, align 4
  store ptr %tok, ptr %tok.addr, align 8
  %call = call noalias ptr @calloc(i64 noundef 1, i64 noundef 288) #8
  store ptr %call, ptr %node, align 8
  %0 = load i32, ptr %kind.addr, align 4
  %1 = load ptr, ptr %node, align 8
  %kind1 = getelementptr inbounds %struct.Node, ptr %1, i32 0, i32 0
  store i32 %0, ptr %kind1, align 16
  %2 = load ptr, ptr %tok.addr, align 8
  %3 = load ptr, ptr %node, align 8
  %tok2 = getelementptr inbounds %struct.Node, ptr %3, i32 0, i32 3
  store ptr %2, ptr %tok2, align 8
  %4 = load ptr, ptr %node, align 8
  ret ptr %4
}

; Function Attrs: nounwind uwtable
define internal ptr @new_num(i64 noundef %val, ptr noundef %tok) #0 {
entry:
  %val.addr = alloca i64, align 8
  %tok.addr = alloca ptr, align 8
  %node = alloca ptr, align 8
  store i64 %val, ptr %val.addr, align 8
  store ptr %tok, ptr %tok.addr, align 8
  %0 = load ptr, ptr %tok.addr, align 8
  %call = call ptr @new_node(i32 noundef 42, ptr noundef %0)
  store ptr %call, ptr %node, align 8
  %1 = load i64, ptr %val.addr, align 8
  %2 = load ptr, ptr %node, align 8
  %val1 = getelementptr inbounds %struct.Node, ptr %2, i32 0, i32 33
  store i64 %1, ptr %val1, align 8
  %3 = load ptr, ptr %node, align 8
  ret ptr %3
}

; Function Attrs: nounwind uwtable
define internal ptr @new_unary(i32 noundef %kind, ptr noundef %expr, ptr noundef %tok) #0 {
entry:
  %kind.addr = alloca i32, align 4
  %expr.addr = alloca ptr, align 8
  %tok.addr = alloca ptr, align 8
  %node = alloca ptr, align 8
  store i32 %kind, ptr %kind.addr, align 4
  store ptr %expr, ptr %expr.addr, align 8
  store ptr %tok, ptr %tok.addr, align 8
  %0 = load i32, ptr %kind.addr, align 4
  %1 = load ptr, ptr %tok.addr, align 8
  %call = call ptr @new_node(i32 noundef %0, ptr noundef %1)
  store ptr %call, ptr %node, align 8
  %2 = load ptr, ptr %expr.addr, align 8
  %3 = load ptr, ptr %node, align 8
  %lhs = getelementptr inbounds %struct.Node, ptr %3, i32 0, i32 4
  store ptr %2, ptr %lhs, align 16
  %4 = load ptr, ptr %node, align 8
  ret ptr %4
}

; Function Attrs: nounwind uwtable
define internal ptr @unary(ptr noundef %rest, ptr noundef %tok) #0 {
entry:
  %retval = alloca ptr, align 8
  %rest.addr = alloca ptr, align 8
  %tok.addr = alloca ptr, align 8
  %lhs = alloca ptr, align 8
  %node = alloca ptr, align 8
  %node56 = alloca ptr, align 8
  store ptr %rest, ptr %rest.addr, align 8
  store ptr %tok, ptr %tok.addr, align 8
  %0 = load ptr, ptr %tok.addr, align 8
  %call = call zeroext i1 @equal(ptr noundef %0, ptr noundef @.str.18)
  br i1 %call, label %if.then, label %if.end

if.then:                                          ; preds = %entry
  %1 = load ptr, ptr %rest.addr, align 8
  %2 = load ptr, ptr %tok.addr, align 8
  %next = getelementptr inbounds %struct.Token, ptr %2, i32 0, i32 1
  %3 = load ptr, ptr %next, align 8
  %call1 = call ptr @cast(ptr noundef %1, ptr noundef %3)
  store ptr %call1, ptr %retval, align 8
  br label %return

if.end:                                           ; preds = %entry
  %4 = load ptr, ptr %tok.addr, align 8
  %call2 = call zeroext i1 @equal(ptr noundef %4, ptr noundef @.str.19)
  br i1 %call2, label %if.then3, label %if.end7

if.then3:                                         ; preds = %if.end
  %5 = load ptr, ptr %rest.addr, align 8
  %6 = load ptr, ptr %tok.addr, align 8
  %next4 = getelementptr inbounds %struct.Token, ptr %6, i32 0, i32 1
  %7 = load ptr, ptr %next4, align 8
  %call5 = call ptr @cast(ptr noundef %5, ptr noundef %7)
  %8 = load ptr, ptr %tok.addr, align 8
  %call6 = call ptr @new_unary(i32 noundef 5, ptr noundef %call5, ptr noundef %8)
  store ptr %call6, ptr %retval, align 8
  br label %return

if.end7:                                          ; preds = %if.end
  %9 = load ptr, ptr %tok.addr, align 8
  %call8 = call zeroext i1 @equal(ptr noundef %9, ptr noundef @.str.9)
  br i1 %call8, label %if.then9, label %if.end15

if.then9:                                         ; preds = %if.end7
  %10 = load ptr, ptr %rest.addr, align 8
  %11 = load ptr, ptr %tok.addr, align 8
  %next10 = getelementptr inbounds %struct.Token, ptr %11, i32 0, i32 1
  %12 = load ptr, ptr %next10, align 8
  %call11 = call ptr @cast(ptr noundef %10, ptr noundef %12)
  store ptr %call11, ptr %lhs, align 8
  %13 = load ptr, ptr %lhs, align 8
  call void @add_type(ptr noundef %13)
  %14 = load ptr, ptr %lhs, align 8
  %kind = getelementptr inbounds %struct.Node, ptr %14, i32 0, i32 0
  %15 = load i32, ptr %kind, align 16
  %cmp = icmp eq i32 %15, 19
  br i1 %cmp, label %land.lhs.true, label %if.end13

land.lhs.true:                                    ; preds = %if.then9
  %16 = load ptr, ptr %lhs, align 8
  %member = getelementptr inbounds %struct.Node, ptr %16, i32 0, i32 14
  %17 = load ptr, ptr %member, align 16
  %is_bitfield = getelementptr inbounds %struct.Member, ptr %17, i32 0, i32 7
  %18 = load i8, ptr %is_bitfield, align 4
  %tobool = trunc i8 %18 to i1
  br i1 %tobool, label %if.then12, label %if.end13

if.then12:                                        ; preds = %land.lhs.true
  %19 = load ptr, ptr %tok.addr, align 8
  call void (ptr, ptr, ...) @error_tok(ptr noundef %19, ptr noundef @.str.60) #9
  unreachable

if.end13:                                         ; preds = %land.lhs.true, %if.then9
  %20 = load ptr, ptr %lhs, align 8
  %21 = load ptr, ptr %tok.addr, align 8
  %call14 = call ptr @new_unary(i32 noundef 20, ptr noundef %20, ptr noundef %21)
  store ptr %call14, ptr %retval, align 8
  br label %return

if.end15:                                         ; preds = %if.end7
  %22 = load ptr, ptr %tok.addr, align 8
  %call16 = call zeroext i1 @equal(ptr noundef %22, ptr noundef @.str.20)
  br i1 %call16, label %if.then17, label %if.end25

if.then17:                                        ; preds = %if.end15
  %23 = load ptr, ptr %rest.addr, align 8
  %24 = load ptr, ptr %tok.addr, align 8
  %next18 = getelementptr inbounds %struct.Token, ptr %24, i32 0, i32 1
  %25 = load ptr, ptr %next18, align 8
  %call19 = call ptr @cast(ptr noundef %23, ptr noundef %25)
  store ptr %call19, ptr %node, align 8
  %26 = load ptr, ptr %node, align 8
  call void @add_type(ptr noundef %26)
  %27 = load ptr, ptr %node, align 8
  %ty = getelementptr inbounds %struct.Node, ptr %27, i32 0, i32 2
  %28 = load ptr, ptr %ty, align 16
  %kind20 = getelementptr inbounds %struct.Type, ptr %28, i32 0, i32 0
  %29 = load i32, ptr %kind20, align 8
  %cmp21 = icmp eq i32 %29, 11
  br i1 %cmp21, label %if.then22, label %if.end23

if.then22:                                        ; preds = %if.then17
  %30 = load ptr, ptr %node, align 8
  store ptr %30, ptr %retval, align 8
  br label %return

if.end23:                                         ; preds = %if.then17
  %31 = load ptr, ptr %node, align 8
  %32 = load ptr, ptr %tok.addr, align 8
  %call24 = call ptr @new_unary(i32 noundef 21, ptr noundef %31, ptr noundef %32)
  store ptr %call24, ptr %retval, align 8
  br label %return

if.end25:                                         ; preds = %if.end15
  %33 = load ptr, ptr %tok.addr, align 8
  %call26 = call zeroext i1 @equal(ptr noundef %33, ptr noundef @.str.61)
  br i1 %call26, label %if.then27, label %if.end31

if.then27:                                        ; preds = %if.end25
  %34 = load ptr, ptr %rest.addr, align 8
  %35 = load ptr, ptr %tok.addr, align 8
  %next28 = getelementptr inbounds %struct.Token, ptr %35, i32 0, i32 1
  %36 = load ptr, ptr %next28, align 8
  %call29 = call ptr @cast(ptr noundef %34, ptr noundef %36)
  %37 = load ptr, ptr %tok.addr, align 8
  %call30 = call ptr @new_unary(i32 noundef 22, ptr noundef %call29, ptr noundef %37)
  store ptr %call30, ptr %retval, align 8
  br label %return

if.end31:                                         ; preds = %if.end25
  %38 = load ptr, ptr %tok.addr, align 8
  %call32 = call zeroext i1 @equal(ptr noundef %38, ptr noundef @.str.62)
  br i1 %call32, label %if.then33, label %if.end37

if.then33:                                        ; preds = %if.end31
  %39 = load ptr, ptr %rest.addr, align 8
  %40 = load ptr, ptr %tok.addr, align 8
  %next34 = getelementptr inbounds %struct.Token, ptr %40, i32 0, i32 1
  %41 = load ptr, ptr %next34, align 8
  %call35 = call ptr @cast(ptr noundef %39, ptr noundef %41)
  %42 = load ptr, ptr %tok.addr, align 8
  %call36 = call ptr @new_unary(i32 noundef 23, ptr noundef %call35, ptr noundef %42)
  store ptr %call36, ptr %retval, align 8
  br label %return

if.end37:                                         ; preds = %if.end31
  %43 = load ptr, ptr %tok.addr, align 8
  %call38 = call zeroext i1 @equal(ptr noundef %43, ptr noundef @.str.63)
  br i1 %call38, label %if.then39, label %if.end45

if.then39:                                        ; preds = %if.end37
  %44 = load ptr, ptr %rest.addr, align 8
  %45 = load ptr, ptr %tok.addr, align 8
  %next40 = getelementptr inbounds %struct.Token, ptr %45, i32 0, i32 1
  %46 = load ptr, ptr %next40, align 8
  %call41 = call ptr @unary(ptr noundef %44, ptr noundef %46)
  %47 = load ptr, ptr %tok.addr, align 8
  %call42 = call ptr @new_num(i64 noundef 1, ptr noundef %47)
  %48 = load ptr, ptr %tok.addr, align 8
  %call43 = call ptr @new_add(ptr noundef %call41, ptr noundef %call42, ptr noundef %48)
  %call44 = call ptr @to_assign(ptr noundef %call43)
  store ptr %call44, ptr %retval, align 8
  br label %return

if.end45:                                         ; preds = %if.end37
  %49 = load ptr, ptr %tok.addr, align 8
  %call46 = call zeroext i1 @equal(ptr noundef %49, ptr noundef @.str.64)
  br i1 %call46, label %if.then47, label %if.end53

if.then47:                                        ; preds = %if.end45
  %50 = load ptr, ptr %rest.addr, align 8
  %51 = load ptr, ptr %tok.addr, align 8
  %next48 = getelementptr inbounds %struct.Token, ptr %51, i32 0, i32 1
  %52 = load ptr, ptr %next48, align 8
  %call49 = call ptr @unary(ptr noundef %50, ptr noundef %52)
  %53 = load ptr, ptr %tok.addr, align 8
  %call50 = call ptr @new_num(i64 noundef 1, ptr noundef %53)
  %54 = load ptr, ptr %tok.addr, align 8
  %call51 = call ptr @new_sub(ptr noundef %call49, ptr noundef %call50, ptr noundef %54)
  %call52 = call ptr @to_assign(ptr noundef %call51)
  store ptr %call52, ptr %retval, align 8
  br label %return

if.end53:                                         ; preds = %if.end45
  %55 = load ptr, ptr %tok.addr, align 8
  %call54 = call zeroext i1 @equal(ptr noundef %55, ptr noundef @.str.6)
  br i1 %call54, label %if.then55, label %if.end62

if.then55:                                        ; preds = %if.end53
  %56 = load ptr, ptr %tok.addr, align 8
  %call57 = call ptr @new_node(i32 noundef 36, ptr noundef %56)
  store ptr %call57, ptr %node56, align 8
  %57 = load ptr, ptr %tok.addr, align 8
  %next58 = getelementptr inbounds %struct.Token, ptr %57, i32 0, i32 1
  %58 = load ptr, ptr %next58, align 8
  %call59 = call ptr @get_ident(ptr noundef %58)
  %59 = load ptr, ptr %node56, align 8
  %label = getelementptr inbounds %struct.Node, ptr %59, i32 0, i32 19
  store ptr %call59, ptr %label, align 8
  %60 = load ptr, ptr @gotos, align 8
  %61 = load ptr, ptr %node56, align 8
  %goto_next = getelementptr inbounds %struct.Node, ptr %61, i32 0, i32 21
  store ptr %60, ptr %goto_next, align 8
  %62 = load ptr, ptr %node56, align 8
  store ptr %62, ptr @gotos, align 8
  %63 = load ptr, ptr %tok.addr, align 8
  %next60 = getelementptr inbounds %struct.Token, ptr %63, i32 0, i32 1
  %64 = load ptr, ptr %next60, align 8
  %next61 = getelementptr inbounds %struct.Token, ptr %64, i32 0, i32 1
  %65 = load ptr, ptr %next61, align 8
  %66 = load ptr, ptr %rest.addr, align 8
  store ptr %65, ptr %66, align 8
  %67 = load ptr, ptr %node56, align 8
  store ptr %67, ptr %retval, align 8
  br label %return

if.end62:                                         ; preds = %if.end53
  %68 = load ptr, ptr %rest.addr, align 8
  %69 = load ptr, ptr %tok.addr, align 8
  %call63 = call ptr @postfix(ptr noundef %68, ptr noundef %69)
  store ptr %call63, ptr %retval, align 8
  br label %return

return:                                           ; preds = %if.end62, %if.then55, %if.then47, %if.then39, %if.then33, %if.then27, %if.end23, %if.then22, %if.end13, %if.then3, %if.then
  %70 = load ptr, ptr %retval, align 8
  ret ptr %70
}