; Function Attrs: nounwind uwtable
define internal fastcc ptr @unary(ptr noundef %rest, ptr noundef %tok) unnamed_addr #0 {
entry:
  %call = tail call zeroext i1 @equal(ptr noundef %tok, ptr noundef nonnull @.str.18) #13
  br i1 %call, label %if.then, label %if.end

if.then:                                          ; preds = %entry
  %next = getelementptr inbounds %struct.Token, ptr %tok, i64 0, i32 1
  %0 = load ptr, ptr %next, align 8
  %call1 = tail call fastcc ptr @cast(ptr noundef %rest, ptr noundef %0)
  br label %common.ret66

if.end:                                           ; preds = %entry
  %call2 = tail call zeroext i1 @equal(ptr noundef %tok, ptr noundef nonnull @.str.19) #13
  br i1 %call2, label %if.then3, label %if.end7

if.then3:                                         ; preds = %if.end
  %next4 = getelementptr inbounds %struct.Token, ptr %tok, i64 0, i32 1
  %1 = load ptr, ptr %next4, align 8
  %call5 = tail call fastcc ptr @cast(ptr noundef %rest, ptr noundef %1)
  %call.i.i = tail call noalias noundef dereferenceable_or_null(288) ptr @calloc(i64 noundef 1, i64 noundef 288) #14
  store i32 5, ptr %call.i.i, align 16
  %tok2.i.i = getelementptr inbounds %struct.Node, ptr %call.i.i, i64 0, i32 3
  store ptr %tok, ptr %tok2.i.i, align 8
  %lhs.i = getelementptr inbounds %struct.Node, ptr %call.i.i, i64 0, i32 4
  store ptr %call5, ptr %lhs.i, align 16
  br label %common.ret66

if.end7:                                          ; preds = %if.end
  %call8 = tail call zeroext i1 @equal(ptr noundef %tok, ptr noundef nonnull @.str.9) #13
  br i1 %call8, label %if.then9, label %if.end15

if.then9:                                         ; preds = %if.end7
  %next10 = getelementptr inbounds %struct.Token, ptr %tok, i64 0, i32 1
  %2 = load ptr, ptr %next10, align 8
  %call11 = tail call fastcc ptr @cast(ptr noundef %rest, ptr noundef %2)
  tail call void @add_type(ptr noundef %call11) #13
  %3 = load i32, ptr %call11, align 16
  %cmp = icmp eq i32 %3, 19
  br i1 %cmp, label %land.lhs.true, label %if.end13

land.lhs.true:                                    ; preds = %if.then9
  %member = getelementptr inbounds %struct.Node, ptr %call11, i64 0, i32 14
  %4 = load ptr, ptr %member, align 16
  %is_bitfield = getelementptr inbounds %struct.Member, ptr %4, i64 0, i32 7
  %5 = load i8, ptr %is_bitfield, align 4
  %6 = and i8 %5, 1
  %tobool.not = icmp eq i8 %6, 0
  br i1 %tobool.not, label %if.end13, label %if.then12

if.then12:                                        ; preds = %land.lhs.true
  tail call void (ptr, ptr, ...) @error_tok(ptr noundef nonnull %tok, ptr noundef nonnull @.str.60) #16
  unreachable

if.end13:                                         ; preds = %land.lhs.true, %if.then9
  %call.i.i49 = tail call noalias noundef dereferenceable_or_null(288) ptr @calloc(i64 noundef 1, i64 noundef 288) #14
  store i32 20, ptr %call.i.i49, align 16
  %tok2.i.i50 = getelementptr inbounds %struct.Node, ptr %call.i.i49, i64 0, i32 3
  store ptr %tok, ptr %tok2.i.i50, align 8
  %lhs.i51 = getelementptr inbounds %struct.Node, ptr %call.i.i49, i64 0, i32 4
  store ptr %call11, ptr %lhs.i51, align 16
  br label %common.ret66

if.end15:                                         ; preds = %if.end7
  %call16 = tail call zeroext i1 @equal(ptr noundef %tok, ptr noundef nonnull @.str.20) #13
  br i1 %call16, label %if.then17, label %if.end25

if.then17:                                        ; preds = %if.end15
  %next18 = getelementptr inbounds %struct.Token, ptr %tok, i64 0, i32 1
  %7 = load ptr, ptr %next18, align 8
  %call19 = tail call fastcc ptr @cast(ptr noundef %rest, ptr noundef %7)
  tail call void @add_type(ptr noundef %call19) #13
  %ty = getelementptr inbounds %struct.Node, ptr %call19, i64 0, i32 2
  %8 = load ptr, ptr %ty, align 16
  %9 = load i32, ptr %8, align 8
  %cmp21 = icmp eq i32 %9, 11
  br i1 %cmp21, label %common.ret66, label %if.end23

if.end23:                                         ; preds = %if.then17
  %call.i.i52 = tail call noalias noundef dereferenceable_or_null(288) ptr @calloc(i64 noundef 1, i64 noundef 288) #14
  store i32 21, ptr %call.i.i52, align 16
  %tok2.i.i53 = getelementptr inbounds %struct.Node, ptr %call.i.i52, i64 0, i32 3
  store ptr %tok, ptr %tok2.i.i53, align 8
  %lhs.i54 = getelementptr inbounds %struct.Node, ptr %call.i.i52, i64 0, i32 4
  store ptr %call19, ptr %lhs.i54, align 16
  br label %common.ret66

if.end25:                                         ; preds = %if.end15
  %call26 = tail call zeroext i1 @equal(ptr noundef %tok, ptr noundef nonnull @.str.61) #13
  br i1 %call26, label %if.then27, label %if.end31

if.then27:                                        ; preds = %if.end25
  %next28 = getelementptr inbounds %struct.Token, ptr %tok, i64 0, i32 1
  %10 = load ptr, ptr %next28, align 8
  %call29 = tail call fastcc ptr @cast(ptr noundef %rest, ptr noundef %10)
  %call.i.i55 = tail call noalias noundef dereferenceable_or_null(288) ptr @calloc(i64 noundef 1, i64 noundef 288) #14
  store i32 22, ptr %call.i.i55, align 16
  %tok2.i.i56 = getelementptr inbounds %struct.Node, ptr %call.i.i55, i64 0, i32 3
  store ptr %tok, ptr %tok2.i.i56, align 8
  %lhs.i57 = getelementptr inbounds %struct.Node, ptr %call.i.i55, i64 0, i32 4
  store ptr %call29, ptr %lhs.i57, align 16
  br label %common.ret66

if.end31:                                         ; preds = %if.end25
  %call32 = tail call zeroext i1 @equal(ptr noundef %tok, ptr noundef nonnull @.str.62) #13
  br i1 %call32, label %if.then33, label %if.end37

if.then33:                                        ; preds = %if.end31
  %next34 = getelementptr inbounds %struct.Token, ptr %tok, i64 0, i32 1
  %11 = load ptr, ptr %next34, align 8
  %call35 = tail call fastcc ptr @cast(ptr noundef %rest, ptr noundef %11)
  %call.i.i58 = tail call noalias noundef dereferenceable_or_null(288) ptr @calloc(i64 noundef 1, i64 noundef 288) #14
  store i32 23, ptr %call.i.i58, align 16
  %tok2.i.i59 = getelementptr inbounds %struct.Node, ptr %call.i.i58, i64 0, i32 3
  store ptr %tok, ptr %tok2.i.i59, align 8
  %lhs.i60 = getelementptr inbounds %struct.Node, ptr %call.i.i58, i64 0, i32 4
  store ptr %call35, ptr %lhs.i60, align 16
  br label %common.ret66

if.end37:                                         ; preds = %if.end31
  %call38 = tail call zeroext i1 @equal(ptr noundef %tok, ptr noundef nonnull @.str.63) #13
  br i1 %call38, label %if.then39, label %if.end45

common.ret66:                                     ; preds = %if.then17, %if.end62, %if.then55, %if.then33, %if.then27, %if.end23, %if.end13, %if.then3, %if.then, %if.then47, %if.then39
  %common.ret66.op = phi ptr [ %call44, %if.then39 ], [ %call52, %if.then47 ], [ %call1, %if.then ], [ %call.i.i, %if.then3 ], [ %call.i.i49, %if.end13 ], [ %call.i.i52, %if.end23 ], [ %call.i.i55, %if.then27 ], [ %call.i.i58, %if.then33 ], [ %call.i, %if.then55 ], [ %call63, %if.end62 ], [ %call19, %if.then17 ]
  ret ptr %common.ret66.op

if.then39:                                        ; preds = %if.end37
  %next40 = getelementptr inbounds %struct.Token, ptr %tok, i64 0, i32 1
  %12 = load ptr, ptr %next40, align 8
  %call41 = tail call fastcc ptr @unary(ptr noundef %rest, ptr noundef %12)
  %call.i.i61 = tail call noalias noundef dereferenceable_or_null(288) ptr @calloc(i64 noundef 1, i64 noundef 288) #14
  store i32 42, ptr %call.i.i61, align 16
  %tok2.i.i62 = getelementptr inbounds %struct.Node, ptr %call.i.i61, i64 0, i32 3
  store ptr %tok, ptr %tok2.i.i62, align 8
  %val1.i = getelementptr inbounds %struct.Node, ptr %call.i.i61, i64 0, i32 33
  store i64 1, ptr %val1.i, align 8
  %call43 = tail call fastcc ptr @new_add(ptr noundef %call41, ptr noundef nonnull %call.i.i61, ptr noundef %tok)
  %call44 = tail call fastcc ptr @to_assign(ptr noundef %call43)
  br label %common.ret66

if.end45:                                         ; preds = %if.end37
  %call46 = tail call zeroext i1 @equal(ptr noundef %tok, ptr noundef nonnull @.str.64) #13
  br i1 %call46, label %if.then47, label %if.end53

if.then47:                                        ; preds = %if.end45
  %next48 = getelementptr inbounds %struct.Token, ptr %tok, i64 0, i32 1
  %13 = load ptr, ptr %next48, align 8
  %call49 = tail call fastcc ptr @unary(ptr noundef %rest, ptr noundef %13)
  %call.i.i63 = tail call noalias noundef dereferenceable_or_null(288) ptr @calloc(i64 noundef 1, i64 noundef 288) #14
  store i32 42, ptr %call.i.i63, align 16
  %tok2.i.i64 = getelementptr inbounds %struct.Node, ptr %call.i.i63, i64 0, i32 3
  store ptr %tok, ptr %tok2.i.i64, align 8
  %val1.i65 = getelementptr inbounds %struct.Node, ptr %call.i.i63, i64 0, i32 33
  store i64 1, ptr %val1.i65, align 8
  %call51 = tail call fastcc ptr @new_sub(ptr noundef %call49, ptr noundef nonnull %call.i.i63, ptr noundef %tok)
  %call52 = tail call fastcc ptr @to_assign(ptr noundef %call51)
  br label %common.ret66

if.end53:                                         ; preds = %if.end45
  %call54 = tail call zeroext i1 @equal(ptr noundef %tok, ptr noundef nonnull @.str.6) #13
  br i1 %call54, label %if.then55, label %if.end62

if.then55:                                        ; preds = %if.end53
  %call.i = tail call noalias noundef dereferenceable_or_null(288) ptr @calloc(i64 noundef 1, i64 noundef 288) #14
  store i32 36, ptr %call.i, align 16
  %tok2.i = getelementptr inbounds %struct.Node, ptr %call.i, i64 0, i32 3
  store ptr %tok, ptr %tok2.i, align 8
  %next58 = getelementptr inbounds %struct.Token, ptr %tok, i64 0, i32 1
  %14 = load ptr, ptr %next58, align 8
  %call59 = tail call fastcc ptr @get_ident(ptr noundef %14)
  %label = getelementptr inbounds %struct.Node, ptr %call.i, i64 0, i32 19
  store ptr %call59, ptr %label, align 8
  %15 = load ptr, ptr @gotos, align 8
  %goto_next = getelementptr inbounds %struct.Node, ptr %call.i, i64 0, i32 21
  store ptr %15, ptr %goto_next, align 8
  store ptr %call.i, ptr @gotos, align 8
  %16 = load ptr, ptr %next58, align 8
  %next61 = getelementptr inbounds %struct.Token, ptr %16, i64 0, i32 1
  %17 = load ptr, ptr %next61, align 8
  store ptr %17, ptr %rest, align 8
  br label %common.ret66

if.end62:                                         ; preds = %if.end53
  %call63 = tail call fastcc ptr @postfix(ptr noundef %rest, ptr noundef %tok)
  br label %common.ret66
}